; Function Attrs: nounwind uwtable
define ptr @l_List_foldl___at___private_Lean_Elab_PatternVar_0__Lean_Elab_Term_CollectPatternVars_throwCtorExpected_showName___spec__6(ptr readnone captures(none) %0, ptr noundef %1, ptr noundef %2) local_unnamed_addr #0 {
  br label %l_Lean_RBNode_insert___at___private_Lean_Elab_PatternVar_0__Lean_Elab_Term_CollectPatternVars_throwCtorExpected_showName___spec__1.exit

l_Lean_RBNode_insert___at___private_Lean_Elab_PatternVar_0__Lean_Elab_Term_CollectPatternVars_throwCtorExpected_showName___spec__1.exit: ; preds = %l_Lean_RBNode_insert___at___private_Lean_Elab_PatternVar_0__Lean_Elab_Term_CollectPatternVars_throwCtorExpected_showName___spec__1.exit.backedge, %3
  %.017 = phi ptr [ %2, %3 ], [ %26, %l_Lean_RBNode_insert___at___private_Lean_Elab_PatternVar_0__Lean_Elab_Term_CollectPatternVars_throwCtorExpected_showName___spec__1.exit.backedge ]
  %.0 = phi ptr [ %1, %3 ], [ %.0.be, %l_Lean_RBNode_insert___at___private_Lean_Elab_PatternVar_0__Lean_Elab_Term_CollectPatternVars_throwCtorExpected_showName___spec__1.exit.backedge ]
  %4 = ptrtoint ptr %.017 to i64
  %5 = and i64 %4, 1
  %.not.i24 = icmp eq i64 %5, 0
  br i1 %.not.i24, label %9, label %6

6:                                                ; preds = %l_Lean_RBNode_insert___at___private_Lean_Elab_PatternVar_0__Lean_Elab_Term_CollectPatternVars_throwCtorExpected_showName___spec__1.exit
  %7 = lshr i64 %4, 1
  %8 = trunc i64 %7 to i32
  br label %lean_obj_tag.exit

9:                                                ; preds = %l_Lean_RBNode_insert___at___private_Lean_Elab_PatternVar_0__Lean_Elab_Term_CollectPatternVars_throwCtorExpected_showName___spec__1.exit
  %10 = getelementptr i8, ptr %.017, i64 4
  %.val.i = load i32, ptr %10, align 4
  %11 = lshr i32 %.val.i, 24
  br label %lean_obj_tag.exit

lean_obj_tag.exit:                                ; preds = %6, %9
  %.0.i = phi i32 [ %8, %6 ], [ %11, %9 ]
  %12 = icmp eq i32 %.0.i, 0
  br i1 %12, label %13, label %14

13:                                               ; preds = %lean_obj_tag.exit
  ret ptr %.0

14:                                               ; preds = %lean_obj_tag.exit
  %15 = getelementptr inbounds nuw i8, ptr %.017, i64 8
  %16 = load ptr, ptr %15, align 8, !tbaa !11
  %17 = ptrtoint ptr %16 to i64
  %18 = and i64 %17, 1
  %.not = icmp eq i64 %18, 0
  br i1 %.not, label %19, label %lean_inc.exit21

19:                                               ; preds = %14
  %.val.i25 = load i32, ptr %16, align 4, !tbaa !8
  %20 = icmp sgt i32 %.val.i25, 0
  br i1 %20, label %21, label %23, !prof !15

21:                                               ; preds = %19
  %22 = add nuw i32 %.val.i25, 1
  store i32 %22, ptr %16, align 4, !tbaa !8
  br label %lean_inc.exit21

23:                                               ; preds = %19
  %.not.i26 = icmp eq i32 %.val.i25, 0
  br i1 %.not.i26, label %lean_inc.exit21, label %24

24:                                               ; preds = %23
  tail call void @lean_inc_ref_cold(ptr noundef nonnull %16) #6
  br label %lean_inc.exit21

lean_inc.exit21:                                  ; preds = %24, %23, %21, %14
  %25 = getelementptr inbounds nuw i8, ptr %.017, i64 16
  %26 = load ptr, ptr %25, align 8, !tbaa !11
  %27 = ptrtoint ptr %26 to i64
  %28 = and i64 %27, 1
  %.not37 = icmp eq i64 %28, 0
  br i1 %.not37, label %29, label %lean_inc.exit20

29:                                               ; preds = %lean_inc.exit21
  %.val.i27 = load i32, ptr %26, align 4, !tbaa !8
  %30 = icmp sgt i32 %.val.i27, 0
  br i1 %30, label %31, label %33, !prof !15

31:                                               ; preds = %29
  %32 = add nuw i32 %.val.i27, 1
  store i32 %32, ptr %26, align 4, !tbaa !8
  br label %lean_inc.exit20

33:                                               ; preds = %29
  %.not.i28 = icmp eq i32 %.val.i27, 0
  br i1 %.not.i28, label %lean_inc.exit20, label %34

34:                                               ; preds = %33
  tail call void @lean_inc_ref_cold(ptr noundef nonnull %26) #6
  br label %lean_inc.exit20

lean_inc.exit20:                                  ; preds = %34, %33, %31, %lean_inc.exit21
  br i1 %.not.i24, label %35, label %lean_dec.exit18

35:                                               ; preds = %lean_inc.exit20
  %36 = load i32, ptr %.017, align 4, !tbaa !8
  %37 = icmp sgt i32 %36, 1
  br i1 %37, label %38, label %40, !prof !15

38:                                               ; preds = %35
  %39 = add nsw i32 %36, -1
  store i32 %39, ptr %.017, align 4, !tbaa !8
  br label %lean_dec.exit18

40:                                               ; preds = %35
  %.not.i = icmp eq i32 %36, 0
  br i1 %.not.i, label %lean_dec.exit18, label %41

41:                                               ; preds = %40
  tail call void @lean_dec_ref_cold(ptr noundef nonnull %.017) #6
  br label %lean_dec.exit18

lean_dec.exit18:                                  ; preds = %41, %40, %38, %lean_inc.exit20
  %42 = getelementptr inbounds nuw i8, ptr %16, i64 8
  %43 = load ptr, ptr %42, align 8, !tbaa !11
  %44 = ptrtoint ptr %43 to i64
  %45 = and i64 %44, 1
  %.not39 = icmp eq i64 %45, 0
  br i1 %.not39, label %46, label %lean_inc.exit19

46:                                               ; preds = %lean_dec.exit18
  %.val.i30 = load i32, ptr %43, align 4, !tbaa !8
  %47 = icmp sgt i32 %.val.i30, 0
  br i1 %47, label %48, label %50, !prof !15

48:                                               ; preds = %46
  %49 = add nuw i32 %.val.i30, 1
  store i32 %49, ptr %43, align 4, !tbaa !8
  br label %lean_inc.exit19

50:                                               ; preds = %46
  %.not.i31 = icmp eq i32 %.val.i30, 0
  br i1 %.not.i31, label %lean_inc.exit19, label %51

51:                                               ; preds = %50
  tail call void @lean_inc_ref_cold(ptr noundef nonnull %43) #6
  br label %lean_inc.exit19

lean_inc.exit19:                                  ; preds = %51, %50, %48, %lean_dec.exit18
  %52 = getelementptr inbounds nuw i8, ptr %16, i64 16
  %53 = load ptr, ptr %52, align 8, !tbaa !11
  %54 = ptrtoint ptr %53 to i64
  %55 = and i64 %54, 1
  %.not40 = icmp eq i64 %55, 0
  br i1 %.not40, label %56, label %lean_inc.exit

56:                                               ; preds = %lean_inc.exit19
  %.val.i33 = load i32, ptr %53, align 4, !tbaa !8
  %57 = icmp sgt i32 %.val.i33, 0
  br i1 %57, label %58, label %60, !prof !15

58:                                               ; preds = %56
  %59 = add nuw i32 %.val.i33, 1
  store i32 %59, ptr %53, align 4, !tbaa !8
  br label %lean_inc.exit

60:                                               ; preds = %56
  %.not.i34 = icmp eq i32 %.val.i33, 0
  br i1 %.not.i34, label %lean_inc.exit, label %61

61:                                               ; preds = %60
  tail call void @lean_inc_ref_cold(ptr noundef nonnull %53) #6
  br label %lean_inc.exit

lean_inc.exit:                                    ; preds = %61, %60, %58, %lean_inc.exit19
  br i1 %.not, label %62, label %lean_dec.exit

62:                                               ; preds = %lean_inc.exit
  %63 = load i32, ptr %16, align 4, !tbaa !8
  %64 = icmp sgt i32 %63, 1
  br i1 %64, label %65, label %67, !prof !15

65:                                               ; preds = %62
  %66 = add nsw i32 %63, -1
  store i32 %66, ptr %16, align 4, !tbaa !8
  br label %lean_dec.exit

67:                                               ; preds = %62
  %.not.i22 = icmp eq i32 %63, 0
  br i1 %.not.i22, label %lean_dec.exit, label %68

68:                                               ; preds = %67
  tail call void @lean_dec_ref_cold(ptr noundef nonnull %16) #6
  br label %lean_dec.exit

lean_dec.exit:                                    ; preds = %68, %67, %65, %lean_inc.exit
  %69 = tail call zeroext i8 @l_Lean_RBNode_isRed___rarg(ptr noundef %.0) #6
  %70 = icmp eq i8 %69, 0
  %71 = tail call ptr @l_Lean_RBNode_ins___at___private_Lean_Elab_PatternVar_0__Lean_Elab_Term_CollectPatternVars_throwCtorExpected_showName___spec__2(ptr noundef %.0, ptr noundef %43, ptr noundef %53)
  br i1 %70, label %l_Lean_RBNode_insert___at___private_Lean_Elab_PatternVar_0__Lean_Elab_Term_CollectPatternVars_throwCtorExpected_showName___spec__1.exit.backedge, label %72

l_Lean_RBNode_insert___at___private_Lean_Elab_PatternVar_0__Lean_Elab_Term_CollectPatternVars_throwCtorExpected_showName___spec__1.exit.backedge: ; preds = %lean_dec.exit, %72
  %.0.be = phi ptr [ %71, %lean_dec.exit ], [ %73, %72 ]
  br label %l_Lean_RBNode_insert___at___private_Lean_Elab_PatternVar_0__Lean_Elab_Term_CollectPatternVars_throwCtorExpected_showName___spec__1.exit

72:                                               ; preds = %lean_dec.exit
  %73 = tail call ptr @l_Lean_RBNode_setBlack___rarg(ptr noundef %71) #6
  br label %l_Lean_RBNode_insert___at___private_Lean_Elab_PatternVar_0__Lean_Elab_Term_CollectPatternVars_throwCtorExpected_showName___spec__1.exit.backedge
}